; Function Attrs: nounwind uwtable
define dso_local range(i64 0, 4294967296) i64 @hashoidvector(ptr noundef readonly captures(none) %0) local_unnamed_addr #0 {
  %2 = getelementptr inbounds nuw i8, ptr %0, i64 32
  %3 = load i64, ptr %2, align 8
  %4 = inttoptr i64 %3 to ptr
  %5 = getelementptr inbounds nuw i8, ptr %4, i64 24
  %6 = getelementptr inbounds nuw i8, ptr %4, i64 16
  %7 = load i32, ptr %6, align 4
  %8 = shl i32 %7, 2
  %9 = tail call i32 @hash_bytes(ptr noundef nonnull %5, i32 noundef %8) #6
  %10 = zext i32 %9 to i64
  ret i64 %10
}